target datalayout = "e-m:e-p270:32:32-p271:32:32-p272:64:64-i64:64-i128:128-f80:128-n8:16:32:64-S128"
target triple = "x86_64-pc-linux-gnu"

%struct.lzma_stream = type { ptr, i64, i64, ptr, i64, i64, ptr, ptr, ptr, ptr, ptr, ptr, i64, i64, i64, i64, i32, i32 }
%struct.archive_write_filter = type { i64, ptr, ptr, ptr, ptr, ptr, ptr, ptr, ptr, ptr, ptr, i32, i32, i32, i32 }
%struct.private_data = type { i32, i32, %struct.lzma_stream, [2 x %struct.lzma_filter], %struct.lzma_options_lzma, i64, ptr, i64, i64, i32 }
%struct.lzma_filter = type { i64, ptr }
%struct.lzma_options_lzma = type { i32, ptr, i32, i32, i32, i32, i32, i32, i32, i32, i32, i32, i32, i32, i32, i32, i32, i32, i32, i32, i32, i32, ptr, ptr }

; Function Attrs: inlinehint nounwind uwtable
define internal void @archive_le64enc(ptr noundef %0, i64 noundef %1) #9 {
  %3 = alloca ptr, align 8
  %4 = alloca i64, align 8
  %5 = alloca ptr, align 8
  store ptr %0, ptr %3, align 8, !tbaa !69
  store i64 %1, ptr %4, align 8, !tbaa !35
  call void @llvm.lifetime.start.p0(i64 8, ptr %5) #11
  %6 = load ptr, ptr %3, align 8, !tbaa !69
  store ptr %6, ptr %5, align 8, !tbaa !67
  %7 = load ptr, ptr %5, align 8, !tbaa !67
  %8 = load i64, ptr %4, align 8, !tbaa !35
  %9 = and i64 %8, 4294967295
  %10 = trunc i64 %9 to i32
  call void @archive_le32enc(ptr noundef %7, i32 noundef %10)
  %11 = load ptr, ptr %5, align 8, !tbaa !67
  %12 = getelementptr inbounds i8, ptr %11, i64 4
  %13 = load i64, ptr %4, align 8, !tbaa !35
  %14 = lshr i64 %13, 32
  %15 = trunc i64 %14 to i32
  call void @archive_le32enc(ptr noundef %12, i32 noundef %15)
  call void @llvm.lifetime.end.p0(i64 8, ptr %5) #11
  ret void
}

; Function Attrs: inlinehint nounwind uwtable
define internal void @archive_le32enc(ptr noundef %0, i32 noundef %1) #9 {
  %3 = alloca ptr, align 8
  %4 = alloca i32, align 4
  %5 = alloca ptr, align 8
  store ptr %0, ptr %3, align 8, !tbaa !69
  store i32 %1, ptr %4, align 4, !tbaa !9
  call void @llvm.lifetime.start.p0(i64 8, ptr %5) #11
  %6 = load ptr, ptr %3, align 8, !tbaa !69
  store ptr %6, ptr %5, align 8, !tbaa !67
  %7 = load i32, ptr %4, align 4, !tbaa !9
  %8 = and i32 %7, 255
  %9 = trunc i32 %8 to i8
  %10 = load ptr, ptr %5, align 8, !tbaa !67
  %11 = getelementptr inbounds i8, ptr %10, i64 0
  store i8 %9, ptr %11, align 1, !tbaa !68
  %12 = load i32, ptr %4, align 4, !tbaa !9
  %13 = lshr i32 %12, 8
  %14 = and i32 %13, 255
  %15 = trunc i32 %14 to i8
  %16 = load ptr, ptr %5, align 8, !tbaa !67
  %17 = getelementptr inbounds i8, ptr %16, i64 1
  store i8 %15, ptr %17, align 1, !tbaa !68
  %18 = load i32, ptr %4, align 4, !tbaa !9
  %19 = lshr i32 %18, 16
  %20 = and i32 %19, 255
  %21 = trunc i32 %20 to i8
  %22 = load ptr, ptr %5, align 8, !tbaa !67
  %23 = getelementptr inbounds i8, ptr %22, i64 2
  store i8 %21, ptr %23, align 1, !tbaa !68
  %24 = load i32, ptr %4, align 4, !tbaa !9
  %25 = lshr i32 %24, 24
  %26 = and i32 %25, 255
  %27 = trunc i32 %26 to i8
  %28 = load ptr, ptr %5, align 8, !tbaa !67
  %29 = getelementptr inbounds i8, ptr %28, i64 3
  store i8 %27, ptr %29, align 1, !tbaa !68
  call void @llvm.lifetime.end.p0(i64 8, ptr %5) #11
  ret void
}

; Function Attrs: nounwind uwtable
define internal i32 @archive_compressor_xz_close(ptr noundef %0) #0 {
  %2 = alloca ptr, align 8
  %3 = alloca ptr, align 8
  %4 = alloca i32, align 4
  store ptr %0, ptr %2, align 8, !tbaa !11
  call void @llvm.lifetime.start.p0(i64 8, ptr %3) #11
  %5 = load ptr, ptr %2, align 8, !tbaa !11
  %6 = getelementptr inbounds nuw %struct.archive_write_filter, ptr %5, i32 0, i32 9
  %7 = load ptr, ptr %6, align 8, !tbaa !23
  store ptr %7, ptr %3, align 8, !tbaa !21
  call void @llvm.lifetime.start.p0(i64 4, ptr %4) #11
  %8 = load ptr, ptr %2, align 8, !tbaa !11
  %9 = load ptr, ptr %3, align 8, !tbaa !21
  %10 = call i32 @drive_compressor(ptr noundef %8, ptr noundef %9, i32 noundef 1)
  store i32 %10, ptr %4, align 4, !tbaa !9
  %11 = load i32, ptr %4, align 4, !tbaa !9
  %12 = icmp eq i32 %11, 0
  br i1 %12, label %13, label %78

13:                                               ; preds = %1
  %14 = load ptr, ptr %3, align 8, !tbaa !21
  %15 = getelementptr inbounds nuw %struct.private_data, ptr %14, i32 0, i32 7
  %16 = load i64, ptr %15, align 8, !tbaa !41
  %17 = load ptr, ptr %3, align 8, !tbaa !21
  %18 = getelementptr inbounds nuw %struct.private_data, ptr %17, i32 0, i32 2
  %19 = getelementptr inbounds nuw %struct.lzma_stream, ptr %18, i32 0, i32 4
  %20 = load i64, ptr %19, align 8, !tbaa !62
  %21 = sub i64 %16, %20
  %22 = load ptr, ptr %3, align 8, !tbaa !21
  %23 = getelementptr inbounds nuw %struct.private_data, ptr %22, i32 0, i32 8
  %24 = load i64, ptr %23, align 8, !tbaa !63
  %25 = add i64 %24, %21
  store i64 %25, ptr %23, align 8, !tbaa !63
  %26 = load ptr, ptr %2, align 8, !tbaa !11
  %27 = getelementptr inbounds nuw %struct.archive_write_filter, ptr %26, i32 0, i32 2
  %28 = load ptr, ptr %27, align 8, !tbaa !64
  %29 = load ptr, ptr %3, align 8, !tbaa !21
  %30 = getelementptr inbounds nuw %struct.private_data, ptr %29, i32 0, i32 6
  %31 = load ptr, ptr %30, align 8, !tbaa !34
  %32 = load ptr, ptr %3, align 8, !tbaa !21
  %33 = getelementptr inbounds nuw %struct.private_data, ptr %32, i32 0, i32 7
  %34 = load i64, ptr %33, align 8, !tbaa !41
  %35 = load ptr, ptr %3, align 8, !tbaa !21
  %36 = getelementptr inbounds nuw %struct.private_data, ptr %35, i32 0, i32 2
  %37 = getelementptr inbounds nuw %struct.lzma_stream, ptr %36, i32 0, i32 4
  %38 = load i64, ptr %37, align 8, !tbaa !62
  %39 = sub i64 %34, %38
  %40 = call i32 @__archive_write_filter(ptr noundef %28, ptr noundef %31, i64 noundef %39)
  store i32 %40, ptr %4, align 4, !tbaa !9
  %41 = load ptr, ptr %2, align 8, !tbaa !11
  %42 = getelementptr inbounds nuw %struct.archive_write_filter, ptr %41, i32 0, i32 11
  %43 = load i32, ptr %42, align 8, !tbaa !13
  %44 = icmp eq i32 %43, 9
  br i1 %44, label %45, label %77

45:                                               ; preds = %13
  %46 = load i32, ptr %4, align 4, !tbaa !9
  %47 = icmp eq i32 %46, 0
  br i1 %47, label %48, label %77

48:                                               ; preds = %45
  %49 = load ptr, ptr %3, align 8, !tbaa !21
  %50 = getelementptr inbounds nuw %struct.private_data, ptr %49, i32 0, i32 6
  %51 = load ptr, ptr %50, align 8, !tbaa !34
  %52 = load ptr, ptr %3, align 8, !tbaa !21
  %53 = getelementptr inbounds nuw %struct.private_data, ptr %52, i32 0, i32 9
  %54 = load i32, ptr %53, align 8, !tbaa !65
  call void @archive_le32enc(ptr noundef %51, i32 noundef %54)
  %55 = load ptr, ptr %3, align 8, !tbaa !21
  %56 = getelementptr inbounds nuw %struct.private_data, ptr %55, i32 0, i32 6
  %57 = load ptr, ptr %56, align 8, !tbaa !34
  %58 = getelementptr inbounds i8, ptr %57, i64 4
  %59 = load ptr, ptr %3, align 8, !tbaa !21
  %60 = getelementptr inbounds nuw %struct.private_data, ptr %59, i32 0, i32 5
  %61 = load i64, ptr %60, align 8, !tbaa !66
  call void @archive_le64enc(ptr noundef %58, i64 noundef %61)
  %62 = load ptr, ptr %3, align 8, !tbaa !21
  %63 = getelementptr inbounds nuw %struct.private_data, ptr %62, i32 0, i32 6
  %64 = load ptr, ptr %63, align 8, !tbaa !34
  %65 = getelementptr inbounds i8, ptr %64, i64 12
  %66 = load ptr, ptr %3, align 8, !tbaa !21
  %67 = getelementptr inbounds nuw %struct.private_data, ptr %66, i32 0, i32 8
  %68 = load i64, ptr %67, align 8, !tbaa !63
  %69 = add nsw i64 %68, 20
  call void @archive_le64enc(ptr noundef %65, i64 noundef %69)
  %70 = load ptr, ptr %2, align 8, !tbaa !11
  %71 = getelementptr inbounds nuw %struct.archive_write_filter, ptr %70, i32 0, i32 2
  %72 = load ptr, ptr %71, align 8, !tbaa !64
  %73 = load ptr, ptr %3, align 8, !tbaa !21
  %74 = getelementptr inbounds nuw %struct.private_data, ptr %73, i32 0, i32 6
  %75 = load ptr, ptr %74, align 8, !tbaa !34
  %76 = call i32 @__archive_write_filter(ptr noundef %72, ptr noundef %75, i64 noundef 20)
  store i32 %76, ptr %4, align 4, !tbaa !9
  br label %77

77:                                               ; preds = %48, %45, %13
  br label %78

78:                                               ; preds = %77, %1
  %79 = load ptr, ptr %3, align 8, !tbaa !21
  %80 = getelementptr inbounds nuw %struct.private_data, ptr %79, i32 0, i32 2
  call void @lzma_end(ptr noundef %80) #11
  %81 = load i32, ptr %4, align 4, !tbaa !9
  call void @llvm.lifetime.end.p0(i64 4, ptr %4) #11
  call void @llvm.lifetime.end.p0(i64 8, ptr %3) #11
  ret i32 %81
}