; Function Attrs: nounwind uwtable
define internal i32 @archive_compressor_xz_close(ptr noundef readonly captures(none) %0) #0 {
  %2 = getelementptr inbounds nuw i8, ptr %0, i64 72
  %3 = load ptr, ptr %2, align 8, !tbaa !14
  %4 = tail call fastcc i32 @drive_compressor(ptr noundef %0, ptr noundef %3, i32 noundef 1)
  %5 = icmp eq i32 %4, 0
  br i1 %5, label %6, label %91

6:                                                ; preds = %1
  %7 = getelementptr inbounds nuw i8, ptr %3, i64 304
  %8 = load i64, ptr %7, align 8, !tbaa !33
  %9 = getelementptr inbounds nuw i8, ptr %3, i64 40
  %10 = load i64, ptr %9, align 8, !tbaa !53
  %11 = sub i64 %8, %10
  %12 = getelementptr inbounds nuw i8, ptr %3, i64 312
  %13 = load i64, ptr %12, align 8, !tbaa !63
  %14 = add i64 %13, %11
  store i64 %14, ptr %12, align 8, !tbaa !63
  %15 = getelementptr inbounds nuw i8, ptr %0, i64 16
  %16 = load ptr, ptr %15, align 8, !tbaa !64
  %17 = getelementptr inbounds nuw i8, ptr %3, i64 296
  %18 = load ptr, ptr %17, align 8, !tbaa !27
  %19 = tail call i32 @__archive_write_filter(ptr noundef %16, ptr noundef %18, i64 noundef %11) #13
  %20 = getelementptr inbounds nuw i8, ptr %0, i64 88
  %21 = load i32, ptr %20, align 8, !tbaa !25
  %22 = icmp eq i32 %21, 9
  %23 = icmp eq i32 %19, 0
  %or.cond = select i1 %22, i1 %23, i1 false
  br i1 %or.cond, label %24, label %91

24:                                               ; preds = %6
  %25 = load ptr, ptr %17, align 8, !tbaa !27
  %26 = getelementptr inbounds nuw i8, ptr %3, i64 320
  %27 = load i32, ptr %26, align 8, !tbaa !61
  %28 = trunc i32 %27 to i8
  store i8 %28, ptr %25, align 1, !tbaa !62
  %29 = lshr i32 %27, 8
  %30 = trunc i32 %29 to i8
  %31 = getelementptr inbounds nuw i8, ptr %25, i64 1
  store i8 %30, ptr %31, align 1, !tbaa !62
  %32 = lshr i32 %27, 16
  %33 = trunc i32 %32 to i8
  %34 = getelementptr inbounds nuw i8, ptr %25, i64 2
  store i8 %33, ptr %34, align 1, !tbaa !62
  %35 = lshr i32 %27, 24
  %36 = trunc nuw i32 %35 to i8
  %37 = getelementptr inbounds nuw i8, ptr %25, i64 3
  store i8 %36, ptr %37, align 1, !tbaa !62
  %38 = load ptr, ptr %17, align 8, !tbaa !27
  %39 = getelementptr inbounds nuw i8, ptr %38, i64 4
  %40 = getelementptr inbounds nuw i8, ptr %3, i64 288
  %41 = load i64, ptr %40, align 8, !tbaa !65
  %42 = trunc i64 %41 to i8
  store i8 %42, ptr %39, align 1, !tbaa !62
  %43 = lshr i64 %41, 8
  %44 = trunc i64 %43 to i8
  %45 = getelementptr inbounds nuw i8, ptr %38, i64 5
  store i8 %44, ptr %45, align 1, !tbaa !62
  %46 = lshr i64 %41, 16
  %47 = trunc i64 %46 to i8
  %48 = getelementptr inbounds nuw i8, ptr %38, i64 6
  store i8 %47, ptr %48, align 1, !tbaa !62
  %49 = lshr i64 %41, 24
  %50 = trunc i64 %49 to i8
  %51 = getelementptr inbounds nuw i8, ptr %38, i64 7
  store i8 %50, ptr %51, align 1, !tbaa !62
  %52 = getelementptr inbounds nuw i8, ptr %38, i64 8
  %53 = lshr i64 %41, 32
  %54 = trunc i64 %53 to i8
  store i8 %54, ptr %52, align 1, !tbaa !62
  %55 = lshr i64 %41, 40
  %56 = trunc i64 %55 to i8
  %57 = getelementptr inbounds nuw i8, ptr %38, i64 9
  store i8 %56, ptr %57, align 1, !tbaa !62
  %58 = lshr i64 %41, 48
  %59 = trunc i64 %58 to i8
  %60 = getelementptr inbounds nuw i8, ptr %38, i64 10
  store i8 %59, ptr %60, align 1, !tbaa !62
  %sum.shift.i = lshr i64 %41, 56
  %61 = trunc nuw i64 %sum.shift.i to i8
  %62 = getelementptr inbounds nuw i8, ptr %38, i64 11
  store i8 %61, ptr %62, align 1, !tbaa !62
  %63 = load ptr, ptr %17, align 8, !tbaa !27
  %64 = getelementptr inbounds nuw i8, ptr %63, i64 12
  %65 = load i64, ptr %12, align 8, !tbaa !63
  %66 = add nsw i64 %65, 20
  %67 = trunc i64 %66 to i8
  store i8 %67, ptr %64, align 1, !tbaa !62
  %68 = lshr i64 %66, 8
  %69 = trunc i64 %68 to i8
  %70 = getelementptr inbounds nuw i8, ptr %63, i64 13
  store i8 %69, ptr %70, align 1, !tbaa !62
  %71 = lshr i64 %66, 16
  %72 = trunc i64 %71 to i8
  %73 = getelementptr inbounds nuw i8, ptr %63, i64 14
  store i8 %72, ptr %73, align 1, !tbaa !62
  %74 = lshr i64 %66, 24
  %75 = trunc i64 %74 to i8
  %76 = getelementptr inbounds nuw i8, ptr %63, i64 15
  store i8 %75, ptr %76, align 1, !tbaa !62
  %77 = getelementptr inbounds nuw i8, ptr %63, i64 16
  %78 = lshr i64 %66, 32
  %79 = trunc i64 %78 to i8
  store i8 %79, ptr %77, align 1, !tbaa !62
  %80 = lshr i64 %66, 40
  %81 = trunc i64 %80 to i8
  %82 = getelementptr inbounds nuw i8, ptr %63, i64 17
  store i8 %81, ptr %82, align 1, !tbaa !62
  %83 = lshr i64 %66, 48
  %84 = trunc i64 %83 to i8
  %85 = getelementptr inbounds nuw i8, ptr %63, i64 18
  store i8 %84, ptr %85, align 1, !tbaa !62
  %sum.shift.i24 = lshr i64 %66, 56
  %86 = trunc nuw i64 %sum.shift.i24 to i8
  %87 = getelementptr inbounds nuw i8, ptr %63, i64 19
  store i8 %86, ptr %87, align 1, !tbaa !62
  %88 = load ptr, ptr %15, align 8, !tbaa !64
  %89 = load ptr, ptr %17, align 8, !tbaa !27
  %90 = tail call i32 @__archive_write_filter(ptr noundef %88, ptr noundef %89, i64 noundef 20) #13
  br label %91

91:                                               ; preds = %6, %24, %1
  %.0 = phi i32 [ %90, %24 ], [ %19, %6 ], [ %4, %1 ]
  %92 = getelementptr inbounds nuw i8, ptr %3, i64 8
  tail call void @lzma_end(ptr noundef nonnull %92) #13
  ret i32 %.0
}